; Function Attrs: mustprogress nounwind uwtable
define hidden void @_ZN10ciTypeFlow14record_failureEPKc(ptr nocapture noundef nonnull align 8 dereferenceable(88) %0, ptr noundef %1) local_unnamed_addr #0 align 2 {
  %3 = load ptr, ptr %0, align 8
  %4 = getelementptr inbounds i8, ptr %3, i64 120
  %5 = load ptr, ptr %4, align 8
  %.not = icmp eq ptr %5, null
  br i1 %.not, label %7, label %6

6:                                                ; preds = %2
  tail call void (ptr, ptr, ...) @_ZN9xmlStream4elemEPKcz(ptr noundef nonnull align 8 dereferenceable(152) %5, ptr noundef nonnull @.str.13, ptr noundef %1) #14
  br label %7

7:                                                ; preds = %6, %2
  %8 = getelementptr inbounds i8, ptr %0, i64 24
  %9 = load ptr, ptr %8, align 8
  %10 = icmp eq ptr %9, null
  br i1 %10, label %11, label %12

11:                                               ; preds = %7
  store ptr %1, ptr %8, align 8
  br label %12

12:                                               ; preds = %11, %7
  ret void
}